; Function Attrs: nounwind uwtable
define void @prte_remove_attribute(ptr noundef %0, i16 noundef zeroext %1) local_unnamed_addr #0 {
  %3 = getelementptr inbounds nuw i8, ptr %0, i64 120
  %4 = getelementptr inbounds nuw i8, ptr %0, i64 240
  %.017 = load ptr, ptr %4, align 8, !tbaa !3
  %.not18 = icmp eq ptr %.017, %3
  br i1 %.not18, label %.loopexit, label %.lr.ph

.lr.ph:                                           ; preds = %2, %41
  %.019 = phi ptr [ %9, %41 ], [ %.017, %2 ]
  %5 = getelementptr inbounds nuw i8, ptr %.019, i64 144
  %6 = load i16, ptr %5, align 8, !tbaa !13
  %7 = icmp eq i16 %1, %6
  %8 = getelementptr inbounds nuw i8, ptr %.019, i64 120
  %9 = load ptr, ptr %8, align 8, !tbaa !3
  br i1 %7, label %10, label %41

10:                                               ; preds = %.lr.ph
  %11 = getelementptr inbounds nuw i8, ptr %.019, i64 128
  %12 = load ptr, ptr %11, align 8, !tbaa !37
  %13 = getelementptr inbounds nuw i8, ptr %12, i64 120
  store volatile ptr %9, ptr %13, align 8, !tbaa !3
  %14 = getelementptr inbounds nuw i8, ptr %9, i64 128
  store volatile ptr %12, ptr %14, align 8, !tbaa !37
  %15 = getelementptr inbounds nuw i8, ptr %0, i64 264
  %16 = load volatile i64, ptr %15, align 8, !tbaa !38
  %17 = add i64 %16, -1
  store volatile i64 %17, ptr %15, align 8, !tbaa !38
  %18 = tail call i32 @pthread_mutex_lock(ptr noundef nonnull %.019) #13
  %19 = icmp eq i32 %18, 35
  br i1 %19, label %20, label %pmix_obj_update.exit

20:                                               ; preds = %10
  %21 = tail call ptr @__errno_location() #15
  store i32 35, ptr %21, align 4, !tbaa !40
  tail call void @perror(ptr noundef nonnull @.str.193) #16
  tail call void @abort() #17
  unreachable

pmix_obj_update.exit:                             ; preds = %10
  %22 = getelementptr inbounds nuw i8, ptr %.019, i64 48
  %23 = load i32, ptr %22, align 8, !tbaa !41
  %24 = add nsw i32 %23, -1
  store i32 %24, ptr %22, align 8, !tbaa !41
  %25 = tail call i32 @pthread_mutex_unlock(ptr noundef nonnull %.019) #13
  %26 = icmp eq i32 %24, 0
  br i1 %26, label %27, label %.loopexit

27:                                               ; preds = %pmix_obj_update.exit
  %28 = getelementptr inbounds nuw i8, ptr %.019, i64 40
  %29 = load ptr, ptr %28, align 8, !tbaa !42
  %30 = getelementptr inbounds nuw i8, ptr %29, i64 48
  %31 = load ptr, ptr %30, align 8, !tbaa !43
  %32 = load ptr, ptr %31, align 8, !tbaa !23
  %.not6.i = icmp eq ptr %32, null
  br i1 %.not6.i, label %pmix_obj_run_destructors.exit, label %.lr.ph.i

.lr.ph.i:                                         ; preds = %27, %.lr.ph.i
  %33 = phi ptr [ %35, %.lr.ph.i ], [ %32, %27 ]
  %.07.i = phi ptr [ %34, %.lr.ph.i ], [ %31, %27 ]
  tail call void %33(ptr noundef nonnull %.019) #13
  %34 = getelementptr inbounds nuw i8, ptr %.07.i, i64 8
  %35 = load ptr, ptr %34, align 8, !tbaa !23
  %.not.i = icmp eq ptr %35, null
  br i1 %.not.i, label %pmix_obj_run_destructors.exit, label %.lr.ph.i, !llvm.loop !45

pmix_obj_run_destructors.exit:                    ; preds = %.lr.ph.i, %27
  %36 = getelementptr inbounds nuw i8, ptr %.019, i64 96
  %37 = load ptr, ptr %36, align 8, !tbaa !46
  %.not14 = icmp eq ptr %37, null
  br i1 %.not14, label %40, label %38

38:                                               ; preds = %pmix_obj_run_destructors.exit
  %39 = getelementptr inbounds nuw i8, ptr %.019, i64 56
  tail call void %37(ptr noundef nonnull %39, ptr noundef nonnull %.019) #13
  br label %.loopexit

40:                                               ; preds = %pmix_obj_run_destructors.exit
  tail call void @free(ptr noundef nonnull %.019) #13
  br label %.loopexit

41:                                               ; preds = %.lr.ph
  %.not = icmp eq ptr %9, %3
  br i1 %.not, label %.loopexit, label %.lr.ph, !llvm.loop !63

.loopexit:                                        ; preds = %41, %2, %pmix_obj_update.exit, %40, %38
  ret void
}